target datalayout = "e-m:e-p270:32:32-p271:32:32-p272:64:64-i64:64-i128:128-f80:128-n8:16:32:64-S128"
target triple = "x86_64-pc-linux-gnu"

%struct.nghttp2_session = type { %struct.nghttp2_map, %struct.nghttp2_outbound_queue, %struct.nghttp2_outbound_queue, %struct.nghttp2_outbound_queue, [8 x %struct.anon], %struct.nghttp2_active_outbound_item, %struct.nghttp2_inbound_frame, %struct.nghttp2_hd_deflater, %struct.nghttp2_hd_inflater, %struct.nghttp2_session_callbacks, %struct.nghttp2_mem, ptr, ptr, %struct.nghttp2_ratelim, i64, i64, i64, i64, i64, i64, i64, i64, i64, i64, i64, i64, i64, i64, i32, i32, i32, i32, i32, i32, i32, i32, i32, i32, i32, i32, i8, %struct.nghttp2_settings_storage, %struct.nghttp2_settings_storage, i32, i32, i32, i8, i8, i8, i8, i8, i8, [32 x i8] }
%struct.nghttp2_map = type { ptr, ptr, i64, i64 }
%struct.nghttp2_outbound_queue = type { ptr, ptr, i64 }
%struct.anon = type { %struct.nghttp2_pq }
%struct.nghttp2_pq = type { ptr, ptr, i64, i64, ptr }
%struct.nghttp2_active_outbound_item = type { ptr, %struct.nghttp2_bufs, i32 }
%struct.nghttp2_bufs = type { ptr, ptr, ptr, i64, i64, i64, i64, i64 }
%struct.nghttp2_inbound_frame = type { %union.nghttp2_frame, %union.nghttp2_ext_frame_payload, ptr, %struct.nghttp2_buf, %struct.nghttp2_buf, ptr, i64, i64, i64, i64, i32, [32 x i8] }
%union.nghttp2_frame = type { %struct.nghttp2_headers }
%struct.nghttp2_headers = type { %struct.nghttp2_frame_hd, i64, %struct.nghttp2_priority_spec, ptr, i64, i32 }
%struct.nghttp2_frame_hd = type { i64, i32, i8, i8, i8 }
%struct.nghttp2_priority_spec = type { i32, i32, i8 }
%union.nghttp2_ext_frame_payload = type { %struct.nghttp2_ext_altsvc }
%struct.nghttp2_ext_altsvc = type { ptr, i64, ptr, i64 }
%struct.nghttp2_buf = type { ptr, ptr, ptr, ptr, ptr }
%struct.nghttp2_hd_deflater = type { %struct.nghttp2_hd_context, %struct.nghttp2_hd_map, i64, i64, i8 }
%struct.nghttp2_hd_context = type { %struct.nghttp2_hd_ringbuf, ptr, i64, i64, i32, i8 }
%struct.nghttp2_hd_ringbuf = type { ptr, i64, i64, i64 }
%struct.nghttp2_hd_map = type { [128 x ptr] }
%struct.nghttp2_hd_inflater = type { %struct.nghttp2_hd_context, %struct.nghttp2_hd_huff_decode_context, %struct.nghttp2_buf, %struct.nghttp2_buf, ptr, ptr, ptr, ptr, i64, i64, i64, i64, i64, i32, i32, i8, i8, i8 }
%struct.nghttp2_hd_huff_decode_context = type { i16 }
%struct.nghttp2_session_callbacks = type { ptr, ptr, ptr, ptr, ptr, ptr, ptr, ptr, ptr, ptr, ptr, ptr, ptr, ptr, ptr, ptr, ptr, ptr, ptr, ptr, ptr, ptr, ptr, ptr, ptr, ptr, ptr, ptr }
%struct.nghttp2_mem = type { ptr, ptr, ptr, ptr, ptr }
%struct.nghttp2_ratelim = type { i64, i64, i64, i64 }
%struct.nghttp2_settings_storage = type { i32, i32, i32, i32, i32, i32, i32, i32 }
%struct.nghttp2_stream = type { i32, %struct.nghttp2_pq_entry, i64, i64, i64, i64, ptr, ptr, ptr, i64, i32, i32, i32, i32, i32, i32, i32, i16, i32, i8, i8, i8, i8, i8, i8 }
%struct.nghttp2_pq_entry = type { i64 }

; Function Attrs: nounwind uwtable
define i32 @nghttp2_session_set_local_window_size(ptr noundef %0, i8 noundef zeroext %1, i32 noundef %2, i32 noundef %3) #0 {
  %5 = alloca i32, align 4
  %6 = alloca ptr, align 8
  %7 = alloca i8, align 1
  %8 = alloca i32, align 4
  %9 = alloca i32, align 4
  %10 = alloca i32, align 4
  %11 = alloca ptr, align 8
  %12 = alloca i32, align 4
  %13 = alloca i32, align 4
  store ptr %0, ptr %6, align 8, !tbaa !3
  store i8 %1, ptr %7, align 1, !tbaa !13
  store i32 %2, ptr %8, align 4, !tbaa !8
  store i32 %3, ptr %9, align 4, !tbaa !8
  call void @llvm.lifetime.start.p0(i64 4, ptr %10) #7
  call void @llvm.lifetime.start.p0(i64 8, ptr %11) #7
  call void @llvm.lifetime.start.p0(i64 4, ptr %12) #7
  %14 = load i32, ptr %9, align 4, !tbaa !8
  %15 = icmp slt i32 %14, 0
  br i1 %15, label %16, label %17

16:                                               ; preds = %4
  store i32 -501, ptr %5, align 4
  store i32 1, ptr %13, align 4
  br label %114

17:                                               ; preds = %4
  %18 = load i32, ptr %8, align 4, !tbaa !8
  %19 = icmp eq i32 %18, 0
  br i1 %19, label %20, label %63

20:                                               ; preds = %17
  %21 = load i32, ptr %9, align 4, !tbaa !8
  %22 = load ptr, ptr %6, align 8, !tbaa !3
  %23 = getelementptr inbounds nuw %struct.nghttp2_session, ptr %22, i32 0, i32 39
  %24 = load i32, ptr %23, align 4, !tbaa !53
  %25 = sub nsw i32 %21, %24
  store i32 %25, ptr %10, align 4, !tbaa !8
  %26 = load i32, ptr %10, align 4, !tbaa !8
  %27 = icmp eq i32 %26, 0
  br i1 %27, label %28, label %29

28:                                               ; preds = %20
  store i32 0, ptr %5, align 4
  store i32 1, ptr %13, align 4
  br label %114

29:                                               ; preds = %20
  %30 = load i32, ptr %10, align 4, !tbaa !8
  %31 = icmp slt i32 %30, 0
  br i1 %31, label %32, label %40

32:                                               ; preds = %29
  %33 = load ptr, ptr %6, align 8, !tbaa !3
  %34 = getelementptr inbounds nuw %struct.nghttp2_session, ptr %33, i32 0, i32 39
  %35 = load ptr, ptr %6, align 8, !tbaa !3
  %36 = getelementptr inbounds nuw %struct.nghttp2_session, ptr %35, i32 0, i32 36
  %37 = load ptr, ptr %6, align 8, !tbaa !3
  %38 = getelementptr inbounds nuw %struct.nghttp2_session, ptr %37, i32 0, i32 38
  %39 = call i32 @nghttp2_adjust_local_window_size(ptr noundef %34, ptr noundef %36, ptr noundef %38, ptr noundef %10)
  store i32 %39, ptr %5, align 4
  store i32 1, ptr %13, align 4
  br label %114

40:                                               ; preds = %29
  %41 = load ptr, ptr %6, align 8, !tbaa !3
  %42 = getelementptr inbounds nuw %struct.nghttp2_session, ptr %41, i32 0, i32 39
  %43 = load ptr, ptr %6, align 8, !tbaa !3
  %44 = getelementptr inbounds nuw %struct.nghttp2_session, ptr %43, i32 0, i32 36
  %45 = load ptr, ptr %6, align 8, !tbaa !3
  %46 = getelementptr inbounds nuw %struct.nghttp2_session, ptr %45, i32 0, i32 38
  %47 = call i32 @nghttp2_increase_local_window_size(ptr noundef %42, ptr noundef %44, ptr noundef %46, ptr noundef %10)
  store i32 %47, ptr %12, align 4, !tbaa !8
  %48 = load i32, ptr %12, align 4, !tbaa !8
  %49 = icmp ne i32 %48, 0
  br i1 %49, label %50, label %52

50:                                               ; preds = %40
  %51 = load i32, ptr %12, align 4, !tbaa !8
  store i32 %51, ptr %5, align 4
  store i32 1, ptr %13, align 4
  br label %114

52:                                               ; preds = %40
  %53 = load i32, ptr %10, align 4, !tbaa !8
  %54 = icmp sgt i32 %53, 0
  br i1 %54, label %55, label %60

55:                                               ; preds = %52
  %56 = load ptr, ptr %6, align 8, !tbaa !3
  %57 = load i32, ptr %8, align 4, !tbaa !8
  %58 = load i32, ptr %10, align 4, !tbaa !8
  %59 = call i32 @nghttp2_session_add_window_update(ptr noundef %56, i8 noundef zeroext 0, i32 noundef %57, i32 noundef %58)
  store i32 %59, ptr %5, align 4
  store i32 1, ptr %13, align 4
  br label %114

60:                                               ; preds = %52
  %61 = load ptr, ptr %6, align 8, !tbaa !3
  %62 = call i32 @nghttp2_session_update_recv_connection_window_size(ptr noundef %61, i64 noundef 0)
  store i32 %62, ptr %5, align 4
  store i32 1, ptr %13, align 4
  br label %114

63:                                               ; preds = %17
  %64 = load ptr, ptr %6, align 8, !tbaa !3
  %65 = load i32, ptr %8, align 4, !tbaa !8
  %66 = call ptr @nghttp2_session_get_stream(ptr noundef %64, i32 noundef %65)
  store ptr %66, ptr %11, align 8, !tbaa !47
  %67 = load ptr, ptr %11, align 8, !tbaa !47
  %68 = icmp eq ptr %67, null
  br i1 %68, label %69, label %70

69:                                               ; preds = %63
  store i32 0, ptr %5, align 4
  store i32 1, ptr %13, align 4
  br label %114

70:                                               ; preds = %63
  %71 = load i32, ptr %9, align 4, !tbaa !8
  %72 = load ptr, ptr %11, align 8, !tbaa !47
  %73 = getelementptr inbounds nuw %struct.nghttp2_stream, ptr %72, i32 0, i32 15
  %74 = load i32, ptr %73, align 4, !tbaa !54
  %75 = sub nsw i32 %71, %74
  store i32 %75, ptr %10, align 4, !tbaa !8
  %76 = load i32, ptr %10, align 4, !tbaa !8
  %77 = icmp eq i32 %76, 0
  br i1 %77, label %78, label %79

78:                                               ; preds = %70
  store i32 0, ptr %5, align 4
  store i32 1, ptr %13, align 4
  br label %114

79:                                               ; preds = %70
  %80 = load i32, ptr %10, align 4, !tbaa !8
  %81 = icmp slt i32 %80, 0
  br i1 %81, label %82, label %90

82:                                               ; preds = %79
  %83 = load ptr, ptr %11, align 8, !tbaa !47
  %84 = getelementptr inbounds nuw %struct.nghttp2_stream, ptr %83, i32 0, i32 15
  %85 = load ptr, ptr %11, align 8, !tbaa !47
  %86 = getelementptr inbounds nuw %struct.nghttp2_stream, ptr %85, i32 0, i32 12
  %87 = load ptr, ptr %11, align 8, !tbaa !47
  %88 = getelementptr inbounds nuw %struct.nghttp2_stream, ptr %87, i32 0, i32 14
  %89 = call i32 @nghttp2_adjust_local_window_size(ptr noundef %84, ptr noundef %86, ptr noundef %88, ptr noundef %10)
  store i32 %89, ptr %5, align 4
  store i32 1, ptr %13, align 4
  br label %114

90:                                               ; preds = %79
  %91 = load ptr, ptr %11, align 8, !tbaa !47
  %92 = getelementptr inbounds nuw %struct.nghttp2_stream, ptr %91, i32 0, i32 15
  %93 = load ptr, ptr %11, align 8, !tbaa !47
  %94 = getelementptr inbounds nuw %struct.nghttp2_stream, ptr %93, i32 0, i32 12
  %95 = load ptr, ptr %11, align 8, !tbaa !47
  %96 = getelementptr inbounds nuw %struct.nghttp2_stream, ptr %95, i32 0, i32 14
  %97 = call i32 @nghttp2_increase_local_window_size(ptr noundef %92, ptr noundef %94, ptr noundef %96, ptr noundef %10)
  store i32 %97, ptr %12, align 4, !tbaa !8
  %98 = load i32, ptr %12, align 4, !tbaa !8
  %99 = icmp ne i32 %98, 0
  br i1 %99, label %100, label %102

100:                                              ; preds = %90
  %101 = load i32, ptr %12, align 4, !tbaa !8
  store i32 %101, ptr %5, align 4
  store i32 1, ptr %13, align 4
  br label %114

102:                                              ; preds = %90
  %103 = load i32, ptr %10, align 4, !tbaa !8
  %104 = icmp sgt i32 %103, 0
  br i1 %104, label %105, label %110

105:                                              ; preds = %102
  %106 = load ptr, ptr %6, align 8, !tbaa !3
  %107 = load i32, ptr %8, align 4, !tbaa !8
  %108 = load i32, ptr %10, align 4, !tbaa !8
  %109 = call i32 @nghttp2_session_add_window_update(ptr noundef %106, i8 noundef zeroext 0, i32 noundef %107, i32 noundef %108)
  store i32 %109, ptr %5, align 4
  store i32 1, ptr %13, align 4
  br label %114

110:                                              ; preds = %102
  %111 = load ptr, ptr %6, align 8, !tbaa !3
  %112 = load ptr, ptr %11, align 8, !tbaa !47
  %113 = call i32 @nghttp2_session_update_recv_stream_window_size(ptr noundef %111, ptr noundef %112, i64 noundef 0, i32 noundef 1)
  store i32 %113, ptr %5, align 4
  store i32 1, ptr %13, align 4
  br label %114

114:                                              ; preds = %110, %105, %100, %82, %78, %69, %60, %55, %50, %32, %28, %16
  call void @llvm.lifetime.end.p0(i64 4, ptr %12) #7
  call void @llvm.lifetime.end.p0(i64 8, ptr %11) #7
  call void @llvm.lifetime.end.p0(i64 4, ptr %10) #7
  %115 = load i32, ptr %5, align 4
  ret i32 %115
}