; Function Attrs: nounwind uwtable
define i32 @nghttp2_session_set_local_window_size(ptr noundef %0, i8 noundef zeroext %1, i32 noundef %2, i32 noundef %3) local_unnamed_addr #0 {
  %5 = alloca i32, align 4
  call void @llvm.lifetime.start.p0(i64 4, ptr nonnull %5) #8
  %6 = icmp slt i32 %3, 0
  br i1 %6, label %52, label %7

7:                                                ; preds = %4
  %8 = icmp eq i32 %2, 0
  br i1 %8, label %9, label %29

9:                                                ; preds = %7
  %10 = getelementptr inbounds nuw i8, ptr %0, i64 2588
  %11 = load i32, ptr %10, align 4, !tbaa !46
  %12 = sub nsw i32 %3, %11
  store i32 %12, ptr %5, align 4, !tbaa !9
  %13 = icmp eq i32 %3, %11
  br i1 %13, label %52, label %14

14:                                               ; preds = %9
  %15 = icmp slt i32 %12, 0
  %16 = getelementptr inbounds nuw i8, ptr %0, i64 2576
  %17 = getelementptr inbounds nuw i8, ptr %0, i64 2584
  br i1 %15, label %18, label %20

18:                                               ; preds = %14
  %19 = call i32 @nghttp2_adjust_local_window_size(ptr noundef nonnull %10, ptr noundef nonnull %16, ptr noundef nonnull %17, ptr noundef nonnull %5) #8
  br label %52

20:                                               ; preds = %14
  %21 = call i32 @nghttp2_increase_local_window_size(ptr noundef nonnull %10, ptr noundef nonnull %16, ptr noundef nonnull %17, ptr noundef nonnull %5) #8
  %.not41 = icmp eq i32 %21, 0
  br i1 %.not41, label %22, label %52

22:                                               ; preds = %20
  %23 = load i32, ptr %5, align 4, !tbaa !9
  %24 = icmp sgt i32 %23, 0
  br i1 %24, label %25, label %27

25:                                               ; preds = %22
  %26 = call i32 @nghttp2_session_add_window_update(ptr noundef nonnull %0, i8 noundef zeroext 0, i32 noundef 0, i32 noundef %23) #8
  br label %52

27:                                               ; preds = %22
  %28 = call i32 @nghttp2_session_update_recv_connection_window_size(ptr noundef nonnull %0, i64 noundef 0) #8
  br label %52

29:                                               ; preds = %7
  %30 = tail call ptr @nghttp2_session_get_stream(ptr noundef %0, i32 noundef %2) #8
  %31 = icmp eq ptr %30, null
  br i1 %31, label %52, label %32

32:                                               ; preds = %29
  %33 = getelementptr inbounds nuw i8, ptr %30, i64 100
  %34 = load i32, ptr %33, align 4, !tbaa !47
  %35 = sub nsw i32 %3, %34
  store i32 %35, ptr %5, align 4, !tbaa !9
  %36 = icmp eq i32 %3, %34
  br i1 %36, label %52, label %37

37:                                               ; preds = %32
  %38 = icmp slt i32 %35, 0
  %39 = getelementptr inbounds nuw i8, ptr %30, i64 88
  %40 = getelementptr inbounds nuw i8, ptr %30, i64 96
  br i1 %38, label %41, label %43

41:                                               ; preds = %37
  %42 = call i32 @nghttp2_adjust_local_window_size(ptr noundef nonnull %33, ptr noundef nonnull %39, ptr noundef nonnull %40, ptr noundef nonnull %5) #8
  br label %52

43:                                               ; preds = %37
  %44 = call i32 @nghttp2_increase_local_window_size(ptr noundef nonnull %33, ptr noundef nonnull %39, ptr noundef nonnull %40, ptr noundef nonnull %5) #8
  %.not = icmp eq i32 %44, 0
  br i1 %.not, label %45, label %52

45:                                               ; preds = %43
  %46 = load i32, ptr %5, align 4, !tbaa !9
  %47 = icmp sgt i32 %46, 0
  br i1 %47, label %48, label %50

48:                                               ; preds = %45
  %49 = call i32 @nghttp2_session_add_window_update(ptr noundef %0, i8 noundef zeroext 0, i32 noundef %2, i32 noundef %46) #8
  br label %52

50:                                               ; preds = %45
  %51 = call i32 @nghttp2_session_update_recv_stream_window_size(ptr noundef %0, ptr noundef nonnull %30, i64 noundef 0, i32 noundef 1) #8
  br label %52

52:                                               ; preds = %43, %32, %29, %20, %9, %4, %50, %48, %41, %27, %25, %18
  %.0 = phi i32 [ %19, %18 ], [ %26, %25 ], [ %28, %27 ], [ %42, %41 ], [ %49, %48 ], [ %51, %50 ], [ -501, %4 ], [ 0, %9 ], [ %21, %20 ], [ 0, %29 ], [ 0, %32 ], [ %44, %43 ]
  call void @llvm.lifetime.end.p0(i64 4, ptr nonnull %5) #8
  ret i32 %.0
}